target datalayout = "e-m:e-p270:32:32-p271:32:32-p272:64:64-i64:64-i128:128-f80:128-n8:16:32:64-S128"
target triple = "x86_64-pc-linux-gnu"

%struct.b2Vec2 = type { float, float }
%struct.b2JointId = type { i32, i16, i16 }
%struct.b2JointSim = type { i32, i32, i32, i32, %struct.b2Vec2, %struct.b2Vec2, float, float, float, float, %union.anon }
%union.anon = type { %struct.b2PrismaticJoint }
%struct.b2PrismaticJoint = type { %struct.b2Vec2, %struct.b2Vec2, float, float, float, float, float, float, float, float, float, float, float, i32, i32, %struct.b2Vec2, %struct.b2Vec2, %struct.b2Vec2, %struct.b2Vec2, float, float, %struct.b2Softness, i8, i8, i8 }
%struct.b2Softness = type { float, float, float }
%struct.b2WeldJoint = type { float, float, float, float, float, %struct.b2Softness, %struct.b2Softness, %struct.b2Vec2, float, i32, i32, %struct.b2Vec2, %struct.b2Vec2, %struct.b2Vec2, float, float }

; Function Attrs: inlinehint nounwind uwtable
define internal float @b2ClampFloat(float noundef %0, float noundef %1, float noundef %2) #3 {
  %4 = alloca float, align 4
  %5 = alloca float, align 4
  %6 = alloca float, align 4
  store float %0, ptr %4, align 4, !tbaa !9
  store float %1, ptr %5, align 4, !tbaa !9
  store float %2, ptr %6, align 4, !tbaa !9
  %7 = load float, ptr %4, align 4, !tbaa !9
  %8 = load float, ptr %5, align 4, !tbaa !9
  %9 = fcmp olt float %7, %8
  br i1 %9, label %10, label %12

10:                                               ; preds = %3
  %11 = load float, ptr %5, align 4, !tbaa !9
  br label %22

12:                                               ; preds = %3
  %13 = load float, ptr %4, align 4, !tbaa !9
  %14 = load float, ptr %6, align 4, !tbaa !9
  %15 = fcmp ogt float %13, %14
  br i1 %15, label %16, label %18

16:                                               ; preds = %12
  %17 = load float, ptr %6, align 4, !tbaa !9
  br label %20

18:                                               ; preds = %12
  %19 = load float, ptr %4, align 4, !tbaa !9
  br label %20

20:                                               ; preds = %18, %16
  %21 = phi float [ %17, %16 ], [ %19, %18 ]
  br label %22

22:                                               ; preds = %20, %10
  %23 = phi float [ %11, %10 ], [ %21, %20 ]
  ret float %23
}

; Function Attrs: nounwind uwtable
define void @b2WeldJoint_SetReferenceAngle(i64 %0, float noundef %1) #0 {
  %3 = alloca %struct.b2JointId, align 4
  %4 = alloca float, align 4
  %5 = alloca ptr, align 8
  store i64 %0, ptr %3, align 4
  store float %1, ptr %4, align 4, !tbaa !9
  call void @llvm.lifetime.start.p0(i64 8, ptr %5) #8
  %6 = load i64, ptr %3, align 4
  %7 = call ptr @b2GetJointSimCheckType(i64 %6, i32 noundef 6)
  store ptr %7, ptr %5, align 8, !tbaa !3
  %8 = load float, ptr %4, align 4, !tbaa !9
  %9 = call float @b2ClampFloat(float noundef %8, float noundef 0xC00921FB60000000, float noundef 0x400921FB60000000)
  %10 = load ptr, ptr %5, align 8, !tbaa !3
  %11 = getelementptr inbounds nuw %struct.b2JointSim, ptr %10, i32 0, i32 10
  %12 = getelementptr inbounds nuw %struct.b2WeldJoint, ptr %11, i32 0, i32 0
  store float %9, ptr %12, align 4, !tbaa !8
  call void @llvm.lifetime.end.p0(i64 8, ptr %5) #8
  ret void
}