; Function Attrs: nounwind uwtable
define void @b2WeldJoint_SetReferenceAngle(i64 %0, float noundef %1) local_unnamed_addr #0 {
  %3 = tail call ptr @b2GetJointSimCheckType(i64 %0, i32 noundef 6) #8
  %4 = fcmp olt float %1, 0xC00921FB60000000
  %5 = fcmp ogt float %1, 0x400921FB60000000
  %6 = select i1 %5, float 0x400921FB60000000, float %1
  %7 = select i1 %4, float 0xC00921FB60000000, float %6
  %8 = getelementptr inbounds nuw i8, ptr %3, i64 48
  store float %7, ptr %8, align 4, !tbaa !3
  ret void
}